(dp0
Vengine
p1
Vpdflatex -shell-escape
p2
sVpackages
p3
c__builtin__
set
p4
((lp5
Vgeometry
p6
aVhyperref
p7
aVminted
p8
atp9
Rp10
sVfiles_with_guttermarks
p11
g4
((lp12
V/opt/local/share/texmf-texlive/tex/latex/fontspec/fontspec.sty
p13
aS'reviewersComments.tex'
p14
aV/Users/blaine/manuscripts/PyMOLsnippets/pymolsnips/reviewersComments.tex
p15
aV/Users/blaine/manuscripts/PyMOLsnippets/pymolsnips/./reviewersComments.tex
p16
atp17
Rp18
sVsynctex
p19
I01
s.